; ModuleID = 'source-C-CXX/53/120.c'
source_filename = "source-C-CXX/53/120.c"
target datalayout = "e-m:e-p270:32:32-p271:32:32-p272:64:64-i64:64-f80:128-n8:16:32:64-S128"
target triple = "x86_64-pc-linux-gnu"

@.str = private unnamed_addr constant [8 x i8] c"%ld %ld\00", align 1
@.str.1 = private unnamed_addr constant [4 x i8] c"%d\0A\00", align 1

; Function Attrs: nofree nounwind sspstrong uwtable
define dso_local i32 @main(i32 %0, i8** nocapture readnone %1) local_unnamed_addr #0 {
  %3 = alloca i64, align 8
  %4 = alloca i64, align 8
  %5 = bitcast i64* %3 to i8*
  call void @llvm.lifetime.start.p0i8(i64 8, i8* nonnull %5) #3
  %6 = bitcast i64* %4 to i8*
  call void @llvm.lifetime.start.p0i8(i64 8, i8* nonnull %6) #3
  %7 = call i32 (i8*, ...) @__isoc99_scanf(i8* getelementptr inbounds ([8 x i8], [8 x i8]* @.str, i64 0, i64 0), i64* nonnull %3, i64* nonnull %4)
  %8 = load i64, i64* %3, align 8, !tbaa !5
  %9 = load i64, i64* %4, align 8, !tbaa !5
  %10 = add nsw i64 %8, -1
  %11 = icmp slt i64 %8, 2
  br i1 %11, label %12, label %14

12:                                               ; preds = %2
  %13 = add nsw i64 %8, %9
  br label %32

14:                                               ; preds = %2, %29
  %15 = phi i64 [ %30, %29 ], [ 1, %2 ]
  %16 = mul nsw i64 %8, %15
  %17 = add nsw i64 %16, %9
  br label %18

18:                                               ; preds = %14, %23
  %19 = phi i64 [ %17, %14 ], [ %27, %23 ]
  %20 = phi i64 [ 2, %14 ], [ %26, %23 ]
  %21 = srem i64 %19, %10
  %22 = icmp eq i64 %21, 0
  br i1 %22, label %23, label %29

23:                                               ; preds = %18
  %24 = mul nsw i64 %19, %8
  %25 = sdiv i64 %24, %10
  %26 = add nuw i64 %20, 1
  %27 = add nsw i64 %25, %9
  %28 = icmp eq i64 %20, %8
  br i1 %28, label %32, label %18, !llvm.loop !9

29:                                               ; preds = %18
  %30 = add nuw nsw i64 %15, 1
  %31 = icmp eq i64 %30, 2147483647
  br i1 %31, label %32, label %14, !llvm.loop !11

32:                                               ; preds = %29, %23, %12
  %33 = phi i64 [ %13, %12 ], [ %27, %23 ], [ %19, %29 ]
  %34 = call i32 (i8*, ...) @printf(i8* nonnull dereferenceable(1) getelementptr inbounds ([4 x i8], [4 x i8]* @.str.1, i64 0, i64 0), i64 %33)
  call void @llvm.lifetime.end.p0i8(i64 8, i8* nonnull %6) #3
  call void @llvm.lifetime.end.p0i8(i64 8, i8* nonnull %5) #3
  ret i32 0
}

; Function Attrs: argmemonly mustprogress nofree nosync nounwind willreturn
declare void @llvm.lifetime.start.p0i8(i64 immarg, i8* nocapture) #1

; Function Attrs: nofree nounwind
declare noundef i32 @__isoc99_scanf(i8* nocapture noundef readonly, ...) local_unnamed_addr #2

; Function Attrs: nofree nounwind
declare noundef i32 @printf(i8* nocapture noundef readonly, ...) local_unnamed_addr #2

; Function Attrs: argmemonly mustprogress nofree nosync nounwind willreturn
declare void @llvm.lifetime.end.p0i8(i64 immarg, i8* nocapture) #1


!llvm.module.flags = !{!0, !1, !2, !3}
!llvm.ident = !{!4}

!0 = !{i32 1, !"wchar_size", i32 4}
!1 = !{i32 7, !"PIC Level", i32 2}
!2 = !{i32 7, !"PIE Level", i32 2}
!3 = !{i32 7, !"uwtable", i32 1}
!4 = !{!"clang version 13.0.0"}
!5 = !{!6, !6, i64 0}
!6 = !{!"long", !7, i64 0}
!7 = !{!"omnipotent char", !8, i64 0}
!8 = !{!"Simple C/C++ TBAA"}
!9 = distinct !{!9, !10}
!10 = !{!"llvm.loop.mustprogress"}
!11 = distinct !{!11, !10}
